; Function Attrs: mustprogress nounwind uwtable
define internal void @"_ZNSt17_Function_handlerIFvN4llvh9StringRefEEZN6hermes3hbc22generateBytecodeModuleEPNS3_6ModuleEPNS3_8FunctionES8_RKNS3_25BytecodeGenerationOptionsENS3_8OptValueIjEEPNS3_18SourceMapGeneratorESt10unique_ptrINS4_14BCProviderBaseESt14default_deleteISH_EEE3$_3E9_M_invokeERKSt9_Any_dataOS1_"(ptr nocapture noundef nonnull readonly align 8 dereferenceable(16) %__functor, ptr nocapture noundef nonnull readonly align 8 dereferenceable(16) %__args) #0 align 2 {
entry:
  %call.val = load ptr, ptr %__functor, align 8
  %__args.val = load ptr, ptr %__args, align 8
  %0 = getelementptr inbounds i8, ptr %__args, i64 8
  %__args.val1 = load i64, ptr %0, align 8
  tail call void @_ZN6hermes3hbc32UniquingStringLiteralAccumulator9addStringEN4llvh9StringRefEb(ptr noundef nonnull align 8 dereferenceable(224) %call.val, ptr %__args.val, i64 %__args.val1, i1 noundef zeroext false)
  ret void
}